; Function Attrs: mustprogress uwtable
define void @_ZN3nix6FdSink15writeUnbufferedESt17basic_string_viewIcSt11char_traitsIcEE(ptr nocapture noundef nonnull align 8 dereferenceable(49) %0, i64 %1, ptr %2) unnamed_addr #2 align 2 personality ptr @__gxx_personality_v0 {
  %4 = getelementptr inbounds i8, ptr %0, i64 40
  %5 = load i64, ptr %4, align 8
  %6 = add i64 %5, %1
  store i64 %6, ptr %4, align 8
  %7 = getelementptr inbounds i8, ptr %0, i64 32
  %8 = load i32, ptr %7, align 8
  invoke void @_ZN3nix9writeFullEiSt17basic_string_viewIcSt11char_traitsIcEEb(i32 noundef %8, i64 %1, ptr %2, i1 noundef zeroext true)
          to label %20 unwind label %9

9:                                                ; preds = %3
  %10 = landingpad { ptr, i32 }
          catch ptr @_ZTIN3nix11SystemErrorE
  %11 = extractvalue { ptr, i32 } %10, 1
  %12 = tail call i32 @llvm.eh.typeid.for(ptr nonnull @_ZTIN3nix11SystemErrorE) #34
  %13 = icmp eq i32 %11, %12
  br i1 %13, label %14, label %21

14:                                               ; preds = %9
  %15 = extractvalue { ptr, i32 } %10, 0
  %16 = tail call ptr @__cxa_begin_catch(ptr %15) #34
  %17 = getelementptr inbounds i8, ptr %0, i64 48
  store i8 0, ptr %17, align 8
  invoke void @__cxa_rethrow() #37
          to label %25 unwind label %18

18:                                               ; preds = %14
  %19 = landingpad { ptr, i32 }
          cleanup
  invoke void @__cxa_end_catch()
          to label %21 unwind label %22

20:                                               ; preds = %3
  ret void

21:                                               ; preds = %18, %9
  %.merged = phi { ptr, i32 } [ %19, %18 ], [ %10, %9 ]
  resume { ptr, i32 } %.merged

22:                                               ; preds = %18
  %23 = landingpad { ptr, i32 }
          catch ptr null
  %24 = extractvalue { ptr, i32 } %23, 0
  tail call void @__clang_call_terminate(ptr %24) #38
  unreachable

25:                                               ; preds = %14
  unreachable
}